; Function Attrs: mustprogress uwtable
define hidden noundef nonnull align 8 dereferenceable(16) ptr @_ZN2cv11bioinspired17ParvoRetinaFilter9runFilterERKSt8valarrayIfEb(ptr noundef nonnull align 8 dereferenceable(304) %0, ptr noundef nonnull readonly align 8 captures(none) dereferenceable(16) %1, i1 noundef zeroext %2) local_unnamed_addr #3 align 2 personality ptr @__gxx_personality_v0 {
  %4 = alloca %"class.cv::Range", align 4
  %5 = alloca %"class.cv::bioinspired::ParvoRetinaFilter::Parallel_OPL_OnOffWaysComputing", align 8
  %6 = getelementptr inbounds nuw i8, ptr %0, i64 8
  %7 = getelementptr inbounds nuw i8, ptr %1, i64 8
  %8 = load ptr, ptr %7, align 8, !tbaa !12
  %9 = getelementptr inbounds nuw i8, ptr %0, i64 184
  %10 = load ptr, ptr %9, align 8, !tbaa !12
  tail call void @_ZN2cv11bioinspired17BasicRetinaFilter23_spatiotemporalLPfilterEPKfPfj(ptr noundef nonnull align 8 dereferenceable(168) %6, ptr noundef %8, ptr noundef nonnull %10, i32 noundef 0)
  %11 = load ptr, ptr %9, align 8, !tbaa !12
  %12 = getelementptr inbounds nuw i8, ptr %0, i64 200
  %13 = load ptr, ptr %12, align 8, !tbaa !12
  tail call void @_ZN2cv11bioinspired17BasicRetinaFilter23_spatiotemporalLPfilterEPKfPfj(ptr noundef nonnull align 8 dereferenceable(168) %6, ptr noundef nonnull %11, ptr noundef nonnull %13, i32 noundef 1)
  call void @llvm.lifetime.start.p0(i64 8, ptr nonnull %4) #13
  %14 = getelementptr inbounds nuw i8, ptr %0, i64 56
  %15 = load i64, ptr %14, align 8, !tbaa !104
  %16 = trunc i64 %15 to i32
  store i32 0, ptr %4, align 4, !tbaa !105
  %17 = getelementptr inbounds nuw i8, ptr %4, i64 4
  store i32 %16, ptr %17, align 4, !tbaa !107
  call void @llvm.lifetime.start.p0(i64 56, ptr nonnull %5) #13
  %18 = load ptr, ptr %9, align 8, !tbaa !12
  %19 = load ptr, ptr %12, align 8, !tbaa !12
  %20 = getelementptr inbounds nuw i8, ptr %0, i64 248
  %21 = load ptr, ptr %20, align 8, !tbaa !12
  %22 = getelementptr inbounds nuw i8, ptr %0, i64 264
  %23 = load ptr, ptr %22, align 8, !tbaa !12
  %24 = getelementptr inbounds nuw i8, ptr %0, i64 216
  %25 = load ptr, ptr %24, align 8, !tbaa !12
  %26 = getelementptr inbounds nuw i8, ptr %0, i64 232
  %27 = load ptr, ptr %26, align 8, !tbaa !12
  store ptr getelementptr inbounds nuw inrange(-16, 24) (i8, ptr @_ZTVN2cv11bioinspired17ParvoRetinaFilter31Parallel_OPL_OnOffWaysComputingE, i64 16), ptr %5, align 8, !tbaa !3
  %28 = getelementptr inbounds nuw i8, ptr %5, i64 8
  store ptr %18, ptr %28, align 8, !tbaa !108
  %29 = getelementptr inbounds nuw i8, ptr %5, i64 16
  store ptr %19, ptr %29, align 8, !tbaa !111
  %30 = getelementptr inbounds nuw i8, ptr %5, i64 24
  store ptr %21, ptr %30, align 8, !tbaa !112
  %31 = getelementptr inbounds nuw i8, ptr %5, i64 32
  store ptr %23, ptr %31, align 8, !tbaa !113
  %32 = getelementptr inbounds nuw i8, ptr %5, i64 40
  store ptr %25, ptr %32, align 8, !tbaa !114
  %33 = getelementptr inbounds nuw i8, ptr %5, i64 48
  store ptr %27, ptr %33, align 8, !tbaa !115
  invoke void @_ZN2cv13parallel_for_ERKNS_5RangeERKNS_16ParallelLoopBodyEd(ptr noundef nonnull align 4 dereferenceable(8) %4, ptr noundef nonnull align 8 dereferenceable(8) %5, double noundef -1.000000e+00)
          to label %_ZN2cv11bioinspired17ParvoRetinaFilter23_OPL_OnOffWaysComputingEv.exit unwind label %34

34:                                               ; preds = %3
  %35 = landingpad { ptr, i32 }
          cleanup
  call void @_ZN2cv16ParallelLoopBodyD2Ev(ptr noundef nonnull align 8 dereferenceable(56) %5) #13
  call void @llvm.lifetime.end.p0(i64 56, ptr nonnull %5) #13
  call void @llvm.lifetime.end.p0(i64 8, ptr nonnull %4) #13
  resume { ptr, i32 } %35

_ZN2cv11bioinspired17ParvoRetinaFilter23_OPL_OnOffWaysComputingEv.exit: ; preds = %3
  call void @_ZN2cv16ParallelLoopBodyD2Ev(ptr noundef nonnull align 8 dereferenceable(56) %5) #13
  call void @llvm.lifetime.end.p0(i64 56, ptr nonnull %5) #13
  call void @llvm.lifetime.end.p0(i64 8, ptr nonnull %4) #13
  br i1 %2, label %36, label %_ZN2cv11bioinspired17ParvoRetinaFilter23_OPL_OnOffWaysComputingEv.exit..loopexit_crit_edge

_ZN2cv11bioinspired17ParvoRetinaFilter23_OPL_OnOffWaysComputingEv.exit..loopexit_crit_edge: ; preds = %_ZN2cv11bioinspired17ParvoRetinaFilter23_OPL_OnOffWaysComputingEv.exit
  %.phi.trans.insert = getelementptr inbounds nuw i8, ptr %0, i64 296
  %.pre = load ptr, ptr %.phi.trans.insert, align 8, !tbaa !21
  br label %.loopexit

36:                                               ; preds = %_ZN2cv11bioinspired17ParvoRetinaFilter23_OPL_OnOffWaysComputingEv.exit
  %37 = load ptr, ptr %20, align 8, !tbaa !12
  %38 = getelementptr inbounds nuw i8, ptr %0, i64 288
  %39 = load ptr, ptr %38, align 8, !tbaa !13
  %40 = getelementptr inbounds nuw i8, ptr %39, i64 8
  %41 = load ptr, ptr %40, align 8, !tbaa !12
  call void @_ZN2cv11bioinspired17BasicRetinaFilter23_spatiotemporalLPfilterEPKfPfj(ptr noundef nonnull align 8 dereferenceable(168) %6, ptr noundef nonnull %37, ptr noundef nonnull %41, i32 noundef 2)
  %42 = load ptr, ptr %24, align 8, !tbaa !12
  %43 = load ptr, ptr %38, align 8, !tbaa !13
  %44 = getelementptr inbounds nuw i8, ptr %43, i64 8
  %45 = load ptr, ptr %44, align 8, !tbaa !12
  call void @_ZN2cv11bioinspired17BasicRetinaFilter25_localLuminanceAdaptationEPfPKf(ptr noundef nonnull align 8 dereferenceable(168) %6, ptr noundef nonnull %42, ptr noundef nonnull %45)
  %46 = load ptr, ptr %22, align 8, !tbaa !12
  %47 = getelementptr inbounds nuw i8, ptr %0, i64 280
  %48 = load ptr, ptr %47, align 8, !tbaa !12
  call void @_ZN2cv11bioinspired17BasicRetinaFilter23_spatiotemporalLPfilterEPKfPfj(ptr noundef nonnull align 8 dereferenceable(168) %6, ptr noundef nonnull %46, ptr noundef nonnull %48, i32 noundef 2)
  %49 = load ptr, ptr %26, align 8, !tbaa !12
  %50 = load ptr, ptr %47, align 8, !tbaa !12
  call void @_ZN2cv11bioinspired17BasicRetinaFilter25_localLuminanceAdaptationEPfPKf(ptr noundef nonnull align 8 dereferenceable(168) %6, ptr noundef nonnull %49, ptr noundef nonnull %50)
  %51 = getelementptr inbounds nuw i8, ptr %0, i64 296
  %52 = load ptr, ptr %51, align 8, !tbaa !21
  %53 = load i64, ptr %14, align 8, !tbaa !104
  %54 = trunc i64 %53 to i32
  %.not = icmp eq i32 %54, 0
  br i1 %.not, label %.loopexit, label %.lr.ph.preheader

.lr.ph.preheader:                                 ; preds = %36
  %55 = load ptr, ptr %26, align 8, !tbaa !12
  %56 = load ptr, ptr %24, align 8, !tbaa !12
  %57 = getelementptr inbounds nuw i8, ptr %52, i64 16
  %58 = load ptr, ptr %57, align 8, !tbaa !12
  br label %.lr.ph

.lr.ph:                                           ; preds = %.lr.ph.preheader, %.lr.ph
  %.013 = phi i32 [ %65, %.lr.ph ], [ 0, %.lr.ph.preheader ]
  %.0712 = phi ptr [ %61, %.lr.ph ], [ %55, %.lr.ph.preheader ]
  %.0811 = phi ptr [ %59, %.lr.ph ], [ %56, %.lr.ph.preheader ]
  %.0910 = phi ptr [ %64, %.lr.ph ], [ %58, %.lr.ph.preheader ]
  %59 = getelementptr inbounds nuw i8, ptr %.0811, i64 4
  %60 = load float, ptr %.0811, align 4, !tbaa !22
  %61 = getelementptr inbounds nuw i8, ptr %.0712, i64 4
  %62 = load float, ptr %.0712, align 4, !tbaa !22
  %63 = fsub float %60, %62
  %64 = getelementptr inbounds nuw i8, ptr %.0910, i64 4
  store float %63, ptr %.0910, align 4, !tbaa !22
  %65 = add nuw i32 %.013, 1
  %exitcond.not = icmp eq i32 %65, %54
  br i1 %exitcond.not, label %.loopexit, label %.lr.ph, !llvm.loop !116

.loopexit:                                        ; preds = %.lr.ph, %_ZN2cv11bioinspired17ParvoRetinaFilter23_OPL_OnOffWaysComputingEv.exit..loopexit_crit_edge, %36
  %66 = phi ptr [ %.pre, %_ZN2cv11bioinspired17ParvoRetinaFilter23_OPL_OnOffWaysComputingEv.exit..loopexit_crit_edge ], [ %52, %36 ], [ %52, %.lr.ph ]
  %67 = getelementptr inbounds nuw i8, ptr %66, i64 8
  ret ptr %67
}